target datalayout = "e-m:e-p270:32:32-p271:32:32-p272:64:64-i64:64-i128:128-f80:128-n8:16:32:64-S128"
target triple = "x86_64-pc-linux-gnu"

%"class.LIEF::MachO::RelocationFixup" = type { %"class.LIEF::MachO::Relocation", i32, i64, i32, i32, %union.anon.38 }
%"class.LIEF::MachO::Relocation" = type { %"class.LIEF::Relocation.base", ptr, i8, i32, ptr, ptr }
%"class.LIEF::Relocation.base" = type <{ %"class.LIEF::Object", i64, i8 }>
%"class.LIEF::Object" = type { ptr }
%union.anon.38 = type { ptr }

; Function Attrs: mustprogress nounwind uwtable
define void @_ZN4LIEF5MachO15RelocationFixupD2Ev(ptr noundef nonnull align 8 dereferenceable(88) %0) unnamed_addr #1 align 2 {
  %2 = alloca ptr, align 8
  store ptr %0, ptr %2, align 8, !tbaa !15
  %3 = load ptr, ptr %2, align 8
  store ptr getelementptr inbounds inrange(-16, 160) ({ [22 x ptr] }, ptr @_ZTVN4LIEF5MachO15RelocationFixupE, i32 0, i32 0, i32 2), ptr %3, align 8, !tbaa !17
  %4 = getelementptr inbounds nuw %"class.LIEF::MachO::RelocationFixup", ptr %3, i32 0, i32 4
  %5 = load i32, ptr %4, align 4, !tbaa !19
  switch i32 %5, label %31 [
    i32 1, label %6
    i32 2, label %12
    i32 3, label %18
    i32 4, label %24
    i32 0, label %30
  ]

6:                                                ; preds = %1
  %7 = getelementptr inbounds nuw %"class.LIEF::MachO::RelocationFixup", ptr %3, i32 0, i32 5
  %8 = load ptr, ptr %7, align 8, !tbaa !10
  %9 = icmp eq ptr %8, null
  br i1 %9, label %11, label %10

10:                                               ; preds = %6
  call void @_ZdlPvm(ptr noundef %8, i64 noundef 8) #20
  br label %11

11:                                               ; preds = %10, %6
  br label %31

12:                                               ; preds = %1
  %13 = getelementptr inbounds nuw %"class.LIEF::MachO::RelocationFixup", ptr %3, i32 0, i32 5
  %14 = load ptr, ptr %13, align 8, !tbaa !10
  %15 = icmp eq ptr %14, null
  br i1 %15, label %17, label %16

16:                                               ; preds = %12
  call void @_ZdlPvm(ptr noundef %14, i64 noundef 8) #20
  br label %17

17:                                               ; preds = %16, %12
  br label %31

18:                                               ; preds = %1
  %19 = getelementptr inbounds nuw %"class.LIEF::MachO::RelocationFixup", ptr %3, i32 0, i32 5
  %20 = load ptr, ptr %19, align 8, !tbaa !10
  %21 = icmp eq ptr %20, null
  br i1 %21, label %23, label %22

22:                                               ; preds = %18
  call void @_ZdlPvm(ptr noundef %20, i64 noundef 8) #20
  br label %23

23:                                               ; preds = %22, %18
  br label %31

24:                                               ; preds = %1
  %25 = getelementptr inbounds nuw %"class.LIEF::MachO::RelocationFixup", ptr %3, i32 0, i32 5
  %26 = load ptr, ptr %25, align 8, !tbaa !10
  %27 = icmp eq ptr %26, null
  br i1 %27, label %29, label %28

28:                                               ; preds = %24
  call void @_ZdlPvm(ptr noundef %26, i64 noundef 4) #20
  br label %29

29:                                               ; preds = %28, %24
  br label %31

30:                                               ; preds = %1
  br label %31

31:                                               ; preds = %30, %1, %29, %23, %17, %11
  call void @_ZN4LIEF6ObjectD2Ev(ptr noundef nonnull align 8 dereferenceable(56) %3) #19
  ret void
}