; Function Attrs: mustprogress nounwind uwtable
define void @_ZN4LIEF5MachO15RelocationFixupD2Ev(ptr noundef nonnull align 8 dereferenceable(88) initializes((0, 8)) %0) unnamed_addr #1 align 2 {
  store ptr getelementptr inbounds nuw inrange(-16, 160) (i8, ptr @_ZTVN4LIEF5MachO15RelocationFixupE, i64 16), ptr %0, align 8, !tbaa !3
  %2 = getelementptr inbounds nuw i8, ptr %0, i64 76
  %3 = load i32, ptr %2, align 4, !tbaa !6
  switch i32 %3, label %24 [
    i32 1, label %4
    i32 2, label %9
    i32 3, label %14
    i32 4, label %19
  ]

4:                                                ; preds = %1
  %5 = getelementptr inbounds nuw i8, ptr %0, i64 80
  %6 = load ptr, ptr %5, align 8, !tbaa !21
  %7 = icmp eq ptr %6, null
  br i1 %7, label %24, label %8

8:                                                ; preds = %4
  tail call void @_ZdlPvm(ptr noundef nonnull %6, i64 noundef 8) #23
  br label %24

9:                                                ; preds = %1
  %10 = getelementptr inbounds nuw i8, ptr %0, i64 80
  %11 = load ptr, ptr %10, align 8, !tbaa !21
  %12 = icmp eq ptr %11, null
  br i1 %12, label %24, label %13

13:                                               ; preds = %9
  tail call void @_ZdlPvm(ptr noundef nonnull %11, i64 noundef 8) #23
  br label %24

14:                                               ; preds = %1
  %15 = getelementptr inbounds nuw i8, ptr %0, i64 80
  %16 = load ptr, ptr %15, align 8, !tbaa !21
  %17 = icmp eq ptr %16, null
  br i1 %17, label %24, label %18

18:                                               ; preds = %14
  tail call void @_ZdlPvm(ptr noundef nonnull %16, i64 noundef 8) #23
  br label %24

19:                                               ; preds = %1
  %20 = getelementptr inbounds nuw i8, ptr %0, i64 80
  %21 = load ptr, ptr %20, align 8, !tbaa !21
  %22 = icmp eq ptr %21, null
  br i1 %22, label %24, label %23

23:                                               ; preds = %19
  tail call void @_ZdlPvm(ptr noundef nonnull %21, i64 noundef 4) #23
  br label %24

24:                                               ; preds = %19, %23, %14, %18, %9, %13, %4, %8, %1
  tail call void @_ZN4LIEF6ObjectD2Ev(ptr noundef nonnull align 8 dereferenceable(56) %0) #24
  ret void
}